; Function Attrs: mustprogress nounwind uwtable
define internal void @_ZN12_GLOBAL__N_14PipeD1Ev(ptr noundef nonnull align 8 dereferenceable(185) %0) unnamed_addr #8 align 2 personality ptr @__gxx_personality_v0 {
  store ptr getelementptr inbounds ({ [12 x ptr], [11 x ptr] }, ptr @_ZTVN12_GLOBAL__N_14PipeE, i64 0, i32 0, i64 6), ptr %0, align 8
  %2 = getelementptr inbounds i8, ptr %0, i64 8
  store ptr getelementptr inbounds ({ [12 x ptr], [11 x ptr] }, ptr @_ZTVN12_GLOBAL__N_14PipeE, i64 0, i32 1, i64 6), ptr %2, align 8
  %3 = getelementptr inbounds i8, ptr %0, i64 104
  %4 = load ptr, ptr %3, align 8
  %.not.i.i.i = icmp eq ptr %4, null
  br i1 %.not.i.i.i, label %_ZN12_GLOBAL__N_14PipeD2Ev.exit, label %5

5:                                                ; preds = %1
  %6 = getelementptr inbounds i8, ptr %0, i64 176
  %7 = getelementptr inbounds i8, ptr %0, i64 144
  %8 = load ptr, ptr %7, align 8
  %9 = load ptr, ptr %6, align 8
  %10 = getelementptr inbounds i8, ptr %9, i64 8
  %11 = icmp ult ptr %8, %10
  br i1 %11, label %.lr.ph.i.i.i.i, label %_ZNSt11_Deque_baseIhSaIhEE16_M_destroy_nodesEPPhS3_.exit.i.i.i

.lr.ph.i.i.i.i:                                   ; preds = %5, %.lr.ph.i.i.i.i
  %.06.i.i.i.i = phi ptr [ %13, %.lr.ph.i.i.i.i ], [ %8, %5 ]
  %12 = load ptr, ptr %.06.i.i.i.i, align 8
  tail call void @_ZdlPv(ptr noundef %12) #24
  %13 = getelementptr inbounds i8, ptr %.06.i.i.i.i, i64 8
  %14 = icmp ult ptr %.06.i.i.i.i, %9
  br i1 %14, label %.lr.ph.i.i.i.i, label %_ZNSt11_Deque_baseIhSaIhEE16_M_destroy_nodesEPPhS3_.exit.loopexit.i.i.i, !llvm.loop !23

_ZNSt11_Deque_baseIhSaIhEE16_M_destroy_nodesEPPhS3_.exit.loopexit.i.i.i: ; preds = %.lr.ph.i.i.i.i
  %.pre.i.i.i = load ptr, ptr %3, align 8
  br label %_ZNSt11_Deque_baseIhSaIhEE16_M_destroy_nodesEPPhS3_.exit.i.i.i

_ZNSt11_Deque_baseIhSaIhEE16_M_destroy_nodesEPPhS3_.exit.i.i.i: ; preds = %_ZNSt11_Deque_baseIhSaIhEE16_M_destroy_nodesEPPhS3_.exit.loopexit.i.i.i, %5
  %15 = phi ptr [ %.pre.i.i.i, %_ZNSt11_Deque_baseIhSaIhEE16_M_destroy_nodesEPPhS3_.exit.loopexit.i.i.i ], [ %4, %5 ]
  tail call void @_ZdlPv(ptr noundef %15) #24
  br label %_ZN12_GLOBAL__N_14PipeD2Ev.exit

_ZN12_GLOBAL__N_14PipeD2Ev.exit:                  ; preds = %1, %_ZNSt11_Deque_baseIhSaIhEE16_M_destroy_nodesEPPhS3_.exit.i.i.i
  %16 = getelementptr inbounds i8, ptr %0, i64 56
  tail call void @_ZNSt18condition_variableD1Ev(ptr noundef nonnull align 8 dereferenceable(48) %16) #23
  ret void
}